(lp0
S'poi'
p1
aS'loan_advances'
p2
aS'director_fees'
p3
aS'shared_receipt_with_poi'
p4
aS'from_this_person_to_poi'
p5
aS'from_poi_to_this_person'
p6
aS'bonus'
p7
aS'deferred_income'
p8
aS'total_stock_value'
p9
aS'expenses'
p10
a.